; Function Attrs: nofree norecurse nosync nounwind memory(none) uwtable
define dso_local i32 @digits10(i64 noundef %0) local_unnamed_addr #13 {
  %2 = icmp ult i64 %0, 10
  br i1 %2, label %.loopexit, label %.lr.ph

.lr.ph:                                           ; preds = %1, %tailrecurse
  %.tr19 = phi i64 [ %28, %tailrecurse ], [ %0, %1 ]
  %accumulator.tr18 = phi i32 [ %29, %tailrecurse ], [ 0, %1 ]
  %3 = icmp ult i64 %.tr19, 100
  br i1 %3, label %.loopexit, label %4

4:                                                ; preds = %.lr.ph
  %5 = icmp ult i64 %.tr19, 1000
  br i1 %5, label %.loopexit, label %6

6:                                                ; preds = %4
  %7 = icmp ult i64 %.tr19, 1000000000000
  br i1 %7, label %8, label %tailrecurse

8:                                                ; preds = %6
  %9 = icmp samesign ult i64 %.tr19, 100000000
  br i1 %9, label %10, label %20

10:                                               ; preds = %8
  %11 = icmp samesign ult i64 %.tr19, 1000000
  br i1 %11, label %12, label %17

12:                                               ; preds = %10
  %13 = icmp samesign ult i64 %.tr19, 10000
  br i1 %13, label %.loopexit, label %14

14:                                               ; preds = %12
  %15 = icmp samesign ugt i64 %.tr19, 99999
  %16 = select i1 %15, i32 6, i32 5
  br label %.loopexit

17:                                               ; preds = %10
  %18 = icmp samesign ugt i64 %.tr19, 9999999
  %19 = select i1 %18, i32 8, i32 7
  br label %.loopexit

20:                                               ; preds = %8
  %21 = icmp samesign ult i64 %.tr19, 10000000000
  br i1 %21, label %22, label %25

22:                                               ; preds = %20
  %23 = icmp samesign ugt i64 %.tr19, 999999999
  %24 = select i1 %23, i32 10, i32 9
  br label %.loopexit

25:                                               ; preds = %20
  %26 = icmp samesign ugt i64 %.tr19, 99999999999
  %27 = select i1 %26, i32 12, i32 11
  br label %.loopexit

tailrecurse:                                      ; preds = %6
  %28 = udiv i64 %.tr19, 1000000000000
  %29 = add i32 %accumulator.tr18, 12
  %30 = icmp ult i64 %.tr19, 10000000000000
  br i1 %30, label %.loopexit, label %.lr.ph

.loopexit:                                        ; preds = %tailrecurse, %.lr.ph, %4, %1, %12, %25, %22, %17, %14
  %accumulator.tr17 = phi i32 [ %accumulator.tr18, %14 ], [ %accumulator.tr18, %17 ], [ %accumulator.tr18, %22 ], [ %accumulator.tr18, %25 ], [ %accumulator.tr18, %12 ], [ 0, %1 ], [ %29, %tailrecurse ], [ %accumulator.tr18, %.lr.ph ], [ %accumulator.tr18, %4 ]
  %.0 = phi i32 [ %16, %14 ], [ %19, %17 ], [ %24, %22 ], [ %27, %25 ], [ 4, %12 ], [ 1, %1 ], [ 1, %tailrecurse ], [ 2, %.lr.ph ], [ 3, %4 ]
  %accumulator.ret.tr = add i32 %.0, %accumulator.tr17
  ret i32 %accumulator.ret.tr
}